target datalayout = "e-m:e-p270:32:32-p271:32:32-p272:64:64-i64:64-i128:128-f80:128-n8:16:32:64-S128"
target triple = "x86_64-pc-linux-gnu"

@.str.4 = private unnamed_addr constant [2 x i8] c"\0A\00", align 1
@.str.5 = private unnamed_addr constant [31 x i8] c"    scc [options] [selection]\0A\00", align 1
@.str.6 = private unnamed_addr constant [80 x i8] c"This command identifies strongly connected components (aka logic loops) in the\0A\00", align 1
@.str.7 = private unnamed_addr constant [9 x i8] c"design.\0A\00", align 1
@.str.8 = private unnamed_addr constant [19 x i8] c"    -expect <num>\0A\00", align 1
@.str.9 = private unnamed_addr constant [76 x i8] c"        expect to find exactly <num> SCCs. A different number of SCCs will\0A\00", align 1
@.str.10 = private unnamed_addr constant [27 x i8] c"        produce an error.\0A\00", align 1
@.str.11 = private unnamed_addr constant [22 x i8] c"    -max_depth <num>\0A\00", align 1
@.str.12 = private unnamed_addr constant [76 x i8] c"        limit to loops not longer than the specified number of cells. This\0A\00", align 1
@.str.13 = private unnamed_addr constant [78 x i8] c"        can e.g. be useful in identifying small local loops in a module that\0A\00", align 1
@.str.14 = private unnamed_addr constant [35 x i8] c"        implements one large SCC.\0A\00", align 1
@.str.15 = private unnamed_addr constant [17 x i8] c"    -nofeedback\0A\00", align 1
@.str.16 = private unnamed_addr constant [78 x i8] c"        do not count cells that have their output fed back into one of their\0A\00", align 1
@.str.17 = private unnamed_addr constant [36 x i8] c"        inputs as single-cell scc.\0A\00", align 1
@.str.18 = private unnamed_addr constant [21 x i8] c"    -all_cell_types\0A\00", align 1
@.str.19 = private unnamed_addr constant [77 x i8] c"        Usually this command only considers internal non-memory cells. With\0A\00", align 1
@.str.20 = private unnamed_addr constant [80 x i8] c"        this option set, all cells are considered. For unknown cells all ports\0A\00", align 1
@.str.21 = private unnamed_addr constant [56 x i8] c"        are assumed to be bidirectional 'inout' ports.\0A\00", align 1
@.str.22 = private unnamed_addr constant [30 x i8] c"    -set_attr <name> <value>\0A\00", align 1
@.str.23 = private unnamed_addr constant [75 x i8] c"        set the specified attribute on all cells that are part of a logic\0A\00", align 1
@.str.24 = private unnamed_addr constant [75 x i8] c"        loop. the special token {} in the value is replaced with a unique\0A\00", align 1
@.str.25 = private unnamed_addr constant [40 x i8] c"        identifier for the logic loop.\0A\00", align 1
@.str.26 = private unnamed_addr constant [13 x i8] c"    -select\0A\00", align 1
@.str.27 = private unnamed_addr constant [79 x i8] c"        replace the current selection with a selection of all cells and wires\0A\00", align 1
@.str.28 = private unnamed_addr constant [45 x i8] c"        that are part of a found logic loop\0A\00", align 1
@.str.29 = private unnamed_addr constant [14 x i8] c"    -specify\0A\00", align 1
@.str.30 = private unnamed_addr constant [80 x i8] c"        examine specify rules to detect logic loops in whitebox/blackbox cells\0A\00", align 1

; Function Attrs: mustprogress uwtable
define internal void @_ZN12_GLOBAL__N_17SccPass4helpEv(ptr noundef nonnull align 8 dereferenceable(104) %0) unnamed_addr #4 align 2 {
  %2 = alloca ptr, align 8
  store ptr %0, ptr %2, align 8, !tbaa !6
  call void (ptr, ...) @_ZN5Yosys3logEPKcz(ptr noundef @.str.4)
  call void (ptr, ...) @_ZN5Yosys3logEPKcz(ptr noundef @.str.5)
  call void (ptr, ...) @_ZN5Yosys3logEPKcz(ptr noundef @.str.4)
  call void (ptr, ...) @_ZN5Yosys3logEPKcz(ptr noundef @.str.6)
  call void (ptr, ...) @_ZN5Yosys3logEPKcz(ptr noundef @.str.7)
  call void (ptr, ...) @_ZN5Yosys3logEPKcz(ptr noundef @.str.4)
  call void (ptr, ...) @_ZN5Yosys3logEPKcz(ptr noundef @.str.8)
  call void (ptr, ...) @_ZN5Yosys3logEPKcz(ptr noundef @.str.9)
  call void (ptr, ...) @_ZN5Yosys3logEPKcz(ptr noundef @.str.10)
  call void (ptr, ...) @_ZN5Yosys3logEPKcz(ptr noundef @.str.4)
  call void (ptr, ...) @_ZN5Yosys3logEPKcz(ptr noundef @.str.11)
  call void (ptr, ...) @_ZN5Yosys3logEPKcz(ptr noundef @.str.12)
  call void (ptr, ...) @_ZN5Yosys3logEPKcz(ptr noundef @.str.13)
  call void (ptr, ...) @_ZN5Yosys3logEPKcz(ptr noundef @.str.14)
  call void (ptr, ...) @_ZN5Yosys3logEPKcz(ptr noundef @.str.4)
  call void (ptr, ...) @_ZN5Yosys3logEPKcz(ptr noundef @.str.15)
  call void (ptr, ...) @_ZN5Yosys3logEPKcz(ptr noundef @.str.16)
  call void (ptr, ...) @_ZN5Yosys3logEPKcz(ptr noundef @.str.17)
  call void (ptr, ...) @_ZN5Yosys3logEPKcz(ptr noundef @.str.4)
  call void (ptr, ...) @_ZN5Yosys3logEPKcz(ptr noundef @.str.18)
  call void (ptr, ...) @_ZN5Yosys3logEPKcz(ptr noundef @.str.19)
  call void (ptr, ...) @_ZN5Yosys3logEPKcz(ptr noundef @.str.20)
  call void (ptr, ...) @_ZN5Yosys3logEPKcz(ptr noundef @.str.21)
  call void (ptr, ...) @_ZN5Yosys3logEPKcz(ptr noundef @.str.4)
  call void (ptr, ...) @_ZN5Yosys3logEPKcz(ptr noundef @.str.22)
  call void (ptr, ...) @_ZN5Yosys3logEPKcz(ptr noundef @.str.23)
  call void (ptr, ...) @_ZN5Yosys3logEPKcz(ptr noundef @.str.24)
  call void (ptr, ...) @_ZN5Yosys3logEPKcz(ptr noundef @.str.25)
  call void (ptr, ...) @_ZN5Yosys3logEPKcz(ptr noundef @.str.4)
  call void (ptr, ...) @_ZN5Yosys3logEPKcz(ptr noundef @.str.26)
  call void (ptr, ...) @_ZN5Yosys3logEPKcz(ptr noundef @.str.27)
  call void (ptr, ...) @_ZN5Yosys3logEPKcz(ptr noundef @.str.28)
  call void (ptr, ...) @_ZN5Yosys3logEPKcz(ptr noundef @.str.4)
  call void (ptr, ...) @_ZN5Yosys3logEPKcz(ptr noundef @.str.29)
  call void (ptr, ...) @_ZN5Yosys3logEPKcz(ptr noundef @.str.30)
  call void (ptr, ...) @_ZN5Yosys3logEPKcz(ptr noundef @.str.4)
  ret void
}